target datalayout = "e-m:e-p270:32:32-p271:32:32-p272:64:64-i64:64-i128:128-f80:128-n8:16:32:64-S128"
target triple = "x86_64-pc-linux-gnu"

%"class.cvc5::internal::FatalStream" = type { i8 }

@.str.2 = private unnamed_addr constant [130 x i8] c"generated/home/dtcxzyw/WorkSpace/Projects/compilers/llvm-opt-benchmark/bench/cvc5/bench_build/src/options/quantifiers_options.cpp\00", align 1
@.str.3 = private unnamed_addr constant [26 x i8] c"Unreachable code reached \00", align 1
@.str.8 = private unnamed_addr constant [5 x i8] c"none\00", align 1
@.str.43 = private unnamed_addr constant [4 x i8] c"all\00", align 1
@.str.109 = private unnamed_addr constant [4 x i8] c"try\00", align 1
@.str.154 = private unnamed_addr constant [10 x i8] c"all-limit\00", align 1
@__PRETTY_FUNCTION__._ZN4cvc58internal7optionslsERSoNS1_23CegqiSingleInvRconsModeE = private unnamed_addr constant [91 x i8] c"std::ostream &cvc5::internal::options::operator<<(std::ostream &, CegqiSingleInvRconsMode)\00", align 1

; Function Attrs: mustprogress uwtable
define hidden noundef nonnull align 8 dereferenceable(8) ptr @_ZN4cvc58internal7optionslsERSoNS1_23CegqiSingleInvRconsModeE(ptr noundef nonnull align 8 dereferenceable(8) %0, i32 noundef %1) #4 personality ptr @__gxx_personality_v0 {
  %3 = alloca ptr, align 8
  %4 = alloca ptr, align 8
  %5 = alloca i32, align 4
  %6 = alloca %"class.cvc5::internal::FatalStream", align 1
  %7 = alloca ptr, align 8
  %8 = alloca i32, align 4
  store ptr %0, ptr %4, align 8, !tbaa !3
  store i32 %1, ptr %5, align 4, !tbaa !80
  %9 = load i32, ptr %5, align 4, !tbaa !80
  switch i32 %9, label %22 [
    i32 0, label %10
    i32 1, label %13
    i32 2, label %16
    i32 3, label %19
  ]

10:                                               ; preds = %2
  %11 = load ptr, ptr %4, align 8, !tbaa !3
  %12 = call noundef nonnull align 8 dereferenceable(8) ptr @_ZStlsISt11char_traitsIcEERSt13basic_ostreamIcT_ES5_PKc(ptr noundef nonnull align 8 dereferenceable(8) %11, ptr noundef @.str.8)
  store ptr %12, ptr %3, align 8
  br label %32

13:                                               ; preds = %2
  %14 = load ptr, ptr %4, align 8, !tbaa !3
  %15 = call noundef nonnull align 8 dereferenceable(8) ptr @_ZStlsISt11char_traitsIcEERSt13basic_ostreamIcT_ES5_PKc(ptr noundef nonnull align 8 dereferenceable(8) %14, ptr noundef @.str.109)
  store ptr %15, ptr %3, align 8
  br label %32

16:                                               ; preds = %2
  %17 = load ptr, ptr %4, align 8, !tbaa !3
  %18 = call noundef nonnull align 8 dereferenceable(8) ptr @_ZStlsISt11char_traitsIcEERSt13basic_ostreamIcT_ES5_PKc(ptr noundef nonnull align 8 dereferenceable(8) %17, ptr noundef @.str.154)
  store ptr %18, ptr %3, align 8
  br label %32

19:                                               ; preds = %2
  %20 = load ptr, ptr %4, align 8, !tbaa !3
  %21 = call noundef nonnull align 8 dereferenceable(8) ptr @_ZStlsISt11char_traitsIcEERSt13basic_ostreamIcT_ES5_PKc(ptr noundef nonnull align 8 dereferenceable(8) %20, ptr noundef @.str.43)
  store ptr %21, ptr %3, align 8
  br label %32

22:                                               ; preds = %2
  call void @llvm.lifetime.start.p0(i64 1, ptr %6) #3
  call void @_ZN4cvc58internal11FatalStreamC1EPKcS3_i(ptr noundef nonnull align 1 dereferenceable(1) %6, ptr noundef @__PRETTY_FUNCTION__._ZN4cvc58internal7optionslsERSoNS1_23CegqiSingleInvRconsModeE, ptr noundef @.str.2, i32 noundef 1050)
  %23 = invoke noundef nonnull align 8 dereferenceable(8) ptr @_ZN4cvc58internal11FatalStream6streamEv(ptr noundef nonnull align 1 dereferenceable(1) %6)
          to label %24 unwind label %27

24:                                               ; preds = %22
  %25 = invoke noundef nonnull align 8 dereferenceable(8) ptr @_ZStlsISt11char_traitsIcEERSt13basic_ostreamIcT_ES5_PKc(ptr noundef nonnull align 8 dereferenceable(8) %23, ptr noundef @.str.3)
          to label %26 unwind label %27

26:                                               ; preds = %24
  call void @_ZN4cvc58internal11FatalStreamD1Ev(ptr noundef nonnull align 1 dereferenceable(1) %6) #15
  unreachable

27:                                               ; preds = %24, %22
  %28 = landingpad { ptr, i32 }
          cleanup
  %29 = extractvalue { ptr, i32 } %28, 0
  store ptr %29, ptr %7, align 8
  %30 = extractvalue { ptr, i32 } %28, 1
  store i32 %30, ptr %8, align 4
  call void @_ZN4cvc58internal11FatalStreamD1Ev(ptr noundef nonnull align 1 dereferenceable(1) %6) #15
  unreachable

31:                                               ; No predecessors!
  call void @llvm.lifetime.end.p0(i64 1, ptr %6) #3
  br label %34

32:                                               ; preds = %19, %16, %13, %10
  %33 = load ptr, ptr %3, align 8
  ret ptr %33

34:                                               ; preds = %31
  %35 = load ptr, ptr %7, align 8
  %36 = load i32, ptr %8, align 4
  %37 = insertvalue { ptr, i32 } poison, ptr %35, 0
  %38 = insertvalue { ptr, i32 } %37, i32 %36, 1
  resume { ptr, i32 } %38
}